target datalayout = "e-m:e-p270:32:32-p271:32:32-p272:64:64-i64:64-i128:128-f80:128-n8:16:32:64-S128"
target triple = "x86_64-pc-linux-gnu"

%struct.AVProbeData = type { ptr, ptr, i32, ptr }

; Function Attrs: nounwind uwtable
define internal i32 @jpegxl_probe(ptr noundef %0) #0 {
  %2 = alloca i32, align 4
  %3 = alloca ptr, align 8
  %4 = alloca ptr, align 8
  %5 = alloca i32, align 4
  store ptr %0, ptr %3, align 8, !tbaa !139
  call void @llvm.lifetime.start.p0(i64 8, ptr %4) #12
  %6 = load ptr, ptr %3, align 8, !tbaa !139
  %7 = getelementptr inbounds nuw %struct.AVProbeData, ptr %6, i32 0, i32 1
  %8 = load ptr, ptr %7, align 8, !tbaa !96
  store ptr %8, ptr %4, align 8, !tbaa !76
  %9 = load ptr, ptr %4, align 8, !tbaa !76
  %10 = load i64, ptr %9, align 1, !tbaa !77
  %11 = icmp eq i64 %10, 2327332182495854592
  br i1 %11, label %12, label %13

12:                                               ; preds = %1
  store i32 51, ptr %2, align 4
  store i32 1, ptr %5, align 4
  br label %30

13:                                               ; preds = %1
  %14 = load ptr, ptr %4, align 8, !tbaa !76
  %15 = load i16, ptr %14, align 1, !tbaa !77
  %16 = zext i16 %15 to i32
  %17 = icmp ne i32 %16, 2815
  br i1 %17, label %18, label %19

18:                                               ; preds = %13
  store i32 0, ptr %2, align 4
  store i32 1, ptr %5, align 4
  br label %30

19:                                               ; preds = %13
  %20 = load ptr, ptr %3, align 8, !tbaa !139
  %21 = getelementptr inbounds nuw %struct.AVProbeData, ptr %20, i32 0, i32 1
  %22 = load ptr, ptr %21, align 8, !tbaa !96
  %23 = load ptr, ptr %3, align 8, !tbaa !139
  %24 = getelementptr inbounds nuw %struct.AVProbeData, ptr %23, i32 0, i32 2
  %25 = load i32, ptr %24, align 8, !tbaa !97
  %26 = call i32 @ff_jpegxl_parse_codestream_header(ptr noundef %22, i32 noundef %25, ptr noundef null, i32 noundef 5)
  %27 = icmp sge i32 %26, 0
  br i1 %27, label %28, label %29

28:                                               ; preds = %19
  store i32 98, ptr %2, align 4
  store i32 1, ptr %5, align 4
  br label %30

29:                                               ; preds = %19
  store i32 0, ptr %2, align 4
  store i32 1, ptr %5, align 4
  br label %30

30:                                               ; preds = %29, %28, %18, %12
  call void @llvm.lifetime.end.p0(i64 8, ptr %4) #12
  %31 = load i32, ptr %2, align 4
  ret i32 %31
}