; Function Attrs: nounwind uwtable
define internal range(i32 0, 99) i32 @jpegxl_probe(ptr noundef readonly captures(none) %0) #0 {
  %2 = getelementptr inbounds nuw i8, ptr %0, i64 8
  %3 = load ptr, ptr %2, align 8, !tbaa !90
  %4 = load i64, ptr %3, align 1
  %5 = icmp eq i64 %4, 2327332182495854592
  br i1 %5, label %12, label %6

6:                                                ; preds = %1
  %7 = and i64 %4, 65535
  %.not = icmp eq i64 %7, 2815
  br i1 %.not, label %8, label %12

8:                                                ; preds = %6
  %9 = getelementptr inbounds nuw i8, ptr %0, i64 16
  %10 = load i32, ptr %9, align 8, !tbaa !91
  %11 = tail call i32 @ff_jpegxl_parse_codestream_header(ptr noundef nonnull %3, i32 noundef %10, ptr noundef null, i32 noundef 5) #14
  %.inv = icmp slt i32 %11, 0
  %. = select i1 %.inv, i32 0, i32 98
  br label %12

12:                                               ; preds = %8, %6, %1
  %.0 = phi i32 [ 51, %1 ], [ 0, %6 ], [ %., %8 ]
  ret i32 %.0
}